; Function Attrs: mustprogress nofree norecurse nosync nounwind willreturn memory(argmem: read) uwtable
define hidden noundef zeroext i1 @_ZNK4cvc58internal6theory2eq17EqClassesIteratorneERKS3_(ptr noundef nonnull readonly align 8 captures(none) dereferenceable(16) %0, ptr noundef nonnull readonly align 8 captures(none) dereferenceable(16) %1) local_unnamed_addr #5 align 2 {
  %3 = load ptr, ptr %0, align 8, !tbaa !3
  %4 = load ptr, ptr %1, align 8, !tbaa !3
  %5 = icmp ne ptr %3, %4
  %6 = getelementptr inbounds nuw i8, ptr %0, i64 8
  %7 = load i64, ptr %6, align 8
  %8 = getelementptr inbounds nuw i8, ptr %1, i64 8
  %9 = load i64, ptr %8, align 8
  %10 = icmp ne i64 %7, %9
  %.not3 = select i1 %5, i1 true, i1 %10
  ret i1 %.not3
}